target datalayout = "e-m:e-p270:32:32-p271:32:32-p272:64:64-i64:64-i128:128-f80:128-n8:16:32:64-S128"
target triple = "x86_64-pc-linux-gnu"

@.str.23 = private unnamed_addr constant [22 x i8] c"DL Buffering Duration\00", align 1
@hf_gtpv2_timer_unit = internal global i32 0, align 4
@hf_gtpv2_timer_value = internal global i32 0, align 4

; Function Attrs: null_pointer_is_valid sspstrong uwtable
define hidden void @dissect_gtpv2_epc_timer(ptr noundef %0, ptr noundef %1, ptr noundef %2, ptr noundef %3, i16 noundef zeroext %4, i8 noundef zeroext %5, i8 noundef zeroext %6, ptr noundef %7) #1 {
  %9 = alloca ptr, align 8
  %10 = alloca ptr, align 8
  %11 = alloca ptr, align 8
  %12 = alloca ptr, align 8
  %13 = alloca i16, align 2
  %14 = alloca i8, align 1
  %15 = alloca i8, align 1
  %16 = alloca ptr, align 8
  store ptr %0, ptr %9, align 8
  store ptr %1, ptr %10, align 8
  store ptr %2, ptr %11, align 8
  store ptr %3, ptr %12, align 8
  store i16 %4, ptr %13, align 2
  store i8 %5, ptr %14, align 1
  store i8 %6, ptr %15, align 1
  store ptr %7, ptr %16, align 8
  %17 = load i8, ptr %14, align 1
  %18 = zext i8 %17 to i32
  switch i32 %18, label %21 [
    i32 177, label %19
  ]

19:                                               ; preds = %8
  %20 = load ptr, ptr %12, align 8
  call void (ptr, ptr, ...) @proto_item_append_text(ptr noundef %20, ptr noundef @.str.23)
  br label %21

21:                                               ; preds = %8, %19
  %22 = load ptr, ptr %11, align 8
  %23 = load i32, ptr @hf_gtpv2_timer_unit, align 4
  %24 = load ptr, ptr %9, align 8
  %25 = call ptr @proto_tree_add_item(ptr noundef %22, i32 noundef %23, ptr noundef %24, i32 noundef 0, i32 noundef 1, i32 noundef 0)
  %26 = load ptr, ptr %11, align 8
  %27 = load i32, ptr @hf_gtpv2_timer_value, align 4
  %28 = load ptr, ptr %9, align 8
  %29 = call ptr @proto_tree_add_item(ptr noundef %26, i32 noundef %27, ptr noundef %28, i32 noundef 0, i32 noundef 1, i32 noundef 0)
  ret void
}