; Function Attrs: null_pointer_is_valid sspstrong uwtable
define hidden void @dissect_gtpv2_epc_timer(ptr noundef %0, ptr readnone captures(none) %1, ptr noundef %2, ptr noundef %3, i16 zeroext %4, i8 noundef zeroext %5, i8 zeroext %6, ptr readnone captures(none) %7) #1 {
  %cond = icmp eq i8 %5, -79
  br i1 %cond, label %9, label %10

9:                                                ; preds = %8
  tail call void (ptr, ptr, ...) @proto_item_append_text(ptr noundef %3, ptr noundef nonnull @.str.23)
  br label %10

10:                                               ; preds = %8, %9
  %11 = load i32, ptr @hf_gtpv2_timer_unit, align 4
  %12 = tail call ptr @proto_tree_add_item(ptr noundef %2, i32 noundef %11, ptr noundef %0, i32 noundef 0, i32 noundef 1, i32 noundef 0)
  %13 = load i32, ptr @hf_gtpv2_timer_value, align 4
  %14 = tail call ptr @proto_tree_add_item(ptr noundef %2, i32 noundef %13, ptr noundef %0, i32 noundef 0, i32 noundef 1, i32 noundef 0)
  ret void
}